; Function Attrs: mustprogress nofree norecurse nosync nounwind willreturn memory(argmem: readwrite) uwtable
define internal noundef i32 @af_indic_hints_init(ptr noundef writeonly captures(none) initializes((8, 40), (5144, 5160)) %0, ptr noundef %1) #1 {
  %3 = getelementptr inbounds nuw i8, ptr %0, i64 5152
  store ptr %1, ptr %3, align 8, !tbaa !69
  %4 = getelementptr inbounds nuw i8, ptr %1, i64 52
  %5 = load i32, ptr %4, align 4, !tbaa !75
  %6 = getelementptr inbounds nuw i8, ptr %0, i64 5144
  %7 = getelementptr inbounds nuw i8, ptr %1, i64 80
  %8 = load i64, ptr %7, align 8, !tbaa !76
  %9 = getelementptr inbounds nuw i8, ptr %0, i64 8
  store i64 %8, ptr %9, align 8, !tbaa !77
  %10 = getelementptr inbounds nuw i8, ptr %1, i64 88
  %11 = load i64, ptr %10, align 8, !tbaa !78
  %12 = getelementptr inbounds nuw i8, ptr %0, i64 16
  store i64 %11, ptr %12, align 8, !tbaa !79
  %13 = getelementptr inbounds nuw i8, ptr %1, i64 976
  %14 = load i64, ptr %13, align 8, !tbaa !76
  %15 = getelementptr inbounds nuw i8, ptr %0, i64 24
  store i64 %14, ptr %15, align 8, !tbaa !80
  %16 = getelementptr inbounds nuw i8, ptr %1, i64 984
  %17 = load i64, ptr %16, align 8, !tbaa !78
  %18 = getelementptr inbounds nuw i8, ptr %0, i64 32
  store i64 %17, ptr %18, align 8, !tbaa !81
  %19 = getelementptr inbounds nuw i8, ptr %1, i64 48
  %20 = load i32, ptr %19, align 8, !tbaa !82
  %21 = icmp eq i32 %20, 2
  %22 = and i32 %20, -2
  %or.cond.i = icmp eq i32 %22, 2
  %spec.select.i = zext i1 %or.cond.i to i32
  %23 = icmp eq i32 %20, 4
  %or.cond3.i = or i1 %21, %23
  %24 = or disjoint i32 %spec.select.i, 2
  %.1.i = select i1 %or.cond3.i, i32 %24, i32 %spec.select.i
  %25 = and i32 %20, -3
  %or.cond5.not.i = icmp eq i32 %25, 1
  %26 = or disjoint i32 %.1.i, 4
  %.2.i = select i1 %or.cond5.not.i, i32 %.1.i, i32 %26
  %27 = or disjoint i32 %.2.i, 8
  %.3.i = select i1 %21, i32 %27, i32 %.2.i
  %28 = or i32 %5, 4
  store i32 %28, ptr %6, align 8, !tbaa !83
  %29 = getelementptr inbounds nuw i8, ptr %0, i64 5148
  store i32 %.3.i, ptr %29, align 4, !tbaa !84
  ret i32 0
}